target datalayout = "e-m:e-p270:32:32-p271:32:32-p272:64:64-i64:64-i128:128-f80:128-n8:16:32:64-S128"
target triple = "x86_64-pc-linux-gnu"

%"class.metaspace::FreeChunkList" = type <{ ptr, ptr, %"class.metaspace::AbstractCounter", [4 x i8] }>
%"class.metaspace::AbstractCounter" = type { i32 }
%"class.metaspace::Metachunk" = type { ptr, i64, i64, i8, i8, ptr, ptr, ptr, ptr, ptr }
%"class.metaspace::FreeChunkListVector" = type { [15 x %"class.metaspace::FreeChunkList"] }

; Function Attrs: mustprogress nounwind uwtable
define linkonce_odr hidden void @_ZN9metaspace15AbstractCounterIjE12decrement_byEj(ptr noundef nonnull align 4 dereferenceable(4) %0, i32 noundef %1) #1 comdat align 2 {
  %3 = alloca ptr, align 8
  %4 = alloca i32, align 4
  store ptr %0, ptr %3, align 8
  store i32 %1, ptr %4, align 4
  %5 = load ptr, ptr %3, align 8
  %6 = load i32, ptr %4, align 4
  %7 = getelementptr inbounds %"class.metaspace::AbstractCounter", ptr %5, i32 0, i32 0
  %8 = load i32, ptr %7, align 4
  %9 = sub i32 %8, %6
  store i32 %9, ptr %7, align 4
  ret void
}

; Function Attrs: mustprogress nounwind uwtable
define linkonce_odr hidden void @_ZN9metaspace15AbstractCounterIjE9decrementEv(ptr noundef nonnull align 4 dereferenceable(4) %0) #1 comdat align 2 {
  %2 = alloca ptr, align 8
  store ptr %0, ptr %2, align 8
  %3 = load ptr, ptr %2, align 8
  call void @_ZN9metaspace15AbstractCounterIjE12decrement_byEj(ptr noundef nonnull align 4 dereferenceable(4) %3, i32 noundef 1)
  ret void
}

; Function Attrs: mustprogress nounwind uwtable
define linkonce_odr hidden void @_ZN9metaspace9Metachunk8set_prevEPS0_(ptr noundef nonnull align 8 dereferenceable(72) %0, ptr noundef %1) #1 comdat align 2 {
  %3 = alloca ptr, align 8
  %4 = alloca ptr, align 8
  store ptr %0, ptr %3, align 8
  store ptr %1, ptr %4, align 8
  %5 = load ptr, ptr %3, align 8
  %6 = load ptr, ptr %4, align 8
  %7 = getelementptr inbounds %"class.metaspace::Metachunk", ptr %5, i32 0, i32 6
  store ptr %6, ptr %7, align 8
  ret void
}

; Function Attrs: mustprogress nounwind uwtable
define linkonce_odr hidden void @_ZN9metaspace9Metachunk8set_nextEPS0_(ptr noundef nonnull align 8 dereferenceable(72) %0, ptr noundef %1) #1 comdat align 2 {
  %3 = alloca ptr, align 8
  %4 = alloca ptr, align 8
  store ptr %0, ptr %3, align 8
  store ptr %1, ptr %4, align 8
  %5 = load ptr, ptr %3, align 8
  %6 = load ptr, ptr %4, align 8
  %7 = getelementptr inbounds %"class.metaspace::Metachunk", ptr %5, i32 0, i32 7
  store ptr %6, ptr %7, align 8
  ret void
}

; Function Attrs: mustprogress nounwind uwtable
define linkonce_odr hidden noundef ptr @_ZNK9metaspace9Metachunk4prevEv(ptr noundef nonnull align 8 dereferenceable(72) %0) #1 comdat align 2 {
  %2 = alloca ptr, align 8
  store ptr %0, ptr %2, align 8
  %3 = load ptr, ptr %2, align 8
  %4 = getelementptr inbounds %"class.metaspace::Metachunk", ptr %3, i32 0, i32 6
  %5 = load ptr, ptr %4, align 8
  ret ptr %5
}

; Function Attrs: mustprogress nounwind uwtable
define linkonce_odr hidden noundef ptr @_ZNK9metaspace9Metachunk4nextEv(ptr noundef nonnull align 8 dereferenceable(72) %0) #1 comdat align 2 {
  %2 = alloca ptr, align 8
  store ptr %0, ptr %2, align 8
  %3 = load ptr, ptr %2, align 8
  %4 = getelementptr inbounds %"class.metaspace::Metachunk", ptr %3, i32 0, i32 7
  %5 = load ptr, ptr %4, align 8
  ret ptr %5
}

; Function Attrs: mustprogress nounwind uwtable
define linkonce_odr hidden noundef i64 @_ZNK9metaspace9Metachunk15committed_wordsEv(ptr noundef nonnull align 8 dereferenceable(72) %0) #1 comdat align 2 {
  %2 = alloca ptr, align 8
  store ptr %0, ptr %2, align 8
  %3 = load ptr, ptr %2, align 8
  %4 = getelementptr inbounds %"class.metaspace::Metachunk", ptr %3, i32 0, i32 2
  %5 = load i64, ptr %4, align 8
  ret i64 %5
}

; Function Attrs: mustprogress nounwind uwtable
define linkonce_odr hidden noundef ptr @_ZNK9metaspace13FreeChunkList5firstEv(ptr noundef nonnull align 8 dereferenceable(20) %0) #1 comdat align 2 {
  %2 = alloca ptr, align 8
  store ptr %0, ptr %2, align 8
  %3 = load ptr, ptr %2, align 8
  %4 = getelementptr inbounds %"class.metaspace::FreeChunkList", ptr %3, i32 0, i32 0
  %5 = load ptr, ptr %4, align 8
  ret ptr %5
}

; Function Attrs: mustprogress nounwind uwtable
define linkonce_odr hidden noundef ptr @_ZN9metaspace13FreeChunkList6removeEPNS_9MetachunkE(ptr noundef nonnull align 8 dereferenceable(20) %0, ptr noundef %1) #1 comdat align 2 {
  %3 = alloca ptr, align 8
  %4 = alloca ptr, align 8
  %5 = alloca ptr, align 8
  %6 = alloca ptr, align 8
  store ptr %0, ptr %3, align 8
  store ptr %1, ptr %4, align 8
  %7 = load ptr, ptr %3, align 8
  %8 = load ptr, ptr %4, align 8
  %9 = call noundef ptr @_ZNK9metaspace9Metachunk4prevEv(ptr noundef nonnull align 8 dereferenceable(72) %8)
  store ptr %9, ptr %5, align 8
  %10 = load ptr, ptr %4, align 8
  %11 = call noundef ptr @_ZNK9metaspace9Metachunk4nextEv(ptr noundef nonnull align 8 dereferenceable(72) %10)
  store ptr %11, ptr %6, align 8
  %12 = load ptr, ptr %5, align 8
  %13 = icmp ne ptr %12, null
  br i1 %13, label %14, label %17

14:                                               ; preds = %2
  %15 = load ptr, ptr %5, align 8
  %16 = load ptr, ptr %6, align 8
  call void @_ZN9metaspace9Metachunk8set_nextEPS0_(ptr noundef nonnull align 8 dereferenceable(72) %15, ptr noundef %16)
  br label %17

17:                                               ; preds = %14, %2
  %18 = load ptr, ptr %6, align 8
  %19 = icmp ne ptr %18, null
  br i1 %19, label %20, label %23

20:                                               ; preds = %17
  %21 = load ptr, ptr %6, align 8
  %22 = load ptr, ptr %5, align 8
  call void @_ZN9metaspace9Metachunk8set_prevEPS0_(ptr noundef nonnull align 8 dereferenceable(72) %21, ptr noundef %22)
  br label %23

23:                                               ; preds = %20, %17
  %24 = getelementptr inbounds %"class.metaspace::FreeChunkList", ptr %7, i32 0, i32 0
  %25 = load ptr, ptr %24, align 8
  %26 = load ptr, ptr %4, align 8
  %27 = icmp eq ptr %25, %26
  br i1 %27, label %28, label %31

28:                                               ; preds = %23
  %29 = load ptr, ptr %6, align 8
  %30 = getelementptr inbounds %"class.metaspace::FreeChunkList", ptr %7, i32 0, i32 0
  store ptr %29, ptr %30, align 8
  br label %31

31:                                               ; preds = %28, %23
  %32 = getelementptr inbounds %"class.metaspace::FreeChunkList", ptr %7, i32 0, i32 1
  %33 = load ptr, ptr %32, align 8
  %34 = load ptr, ptr %4, align 8
  %35 = icmp eq ptr %33, %34
  br i1 %35, label %36, label %39

36:                                               ; preds = %31
  %37 = load ptr, ptr %5, align 8
  %38 = getelementptr inbounds %"class.metaspace::FreeChunkList", ptr %7, i32 0, i32 1
  store ptr %37, ptr %38, align 8
  br label %39

39:                                               ; preds = %36, %31
  %40 = load ptr, ptr %4, align 8
  call void @_ZN9metaspace9Metachunk8set_nextEPS0_(ptr noundef nonnull align 8 dereferenceable(72) %40, ptr noundef null)
  %41 = load ptr, ptr %4, align 8
  call void @_ZN9metaspace9Metachunk8set_prevEPS0_(ptr noundef nonnull align 8 dereferenceable(72) %41, ptr noundef null)
  %42 = getelementptr inbounds %"class.metaspace::FreeChunkList", ptr %7, i32 0, i32 2
  call void @_ZN9metaspace15AbstractCounterIjE9decrementEv(ptr noundef nonnull align 4 dereferenceable(4) %42)
  %43 = load ptr, ptr %4, align 8
  ret ptr %43
}

; Function Attrs: mustprogress nounwind uwtable
define linkonce_odr hidden noundef ptr @_ZNK9metaspace13FreeChunkList25first_minimally_committedEm(ptr noundef nonnull align 8 dereferenceable(20) %0, i64 noundef %1) #1 comdat align 2 {
  %3 = alloca ptr, align 8
  %4 = alloca ptr, align 8
  %5 = alloca i64, align 8
  %6 = alloca ptr, align 8
  store ptr %0, ptr %4, align 8
  store i64 %1, ptr %5, align 8
  %7 = load ptr, ptr %4, align 8
  %8 = call noundef ptr @_ZNK9metaspace13FreeChunkList5firstEv(ptr noundef nonnull align 8 dereferenceable(20) %7)
  store ptr %8, ptr %6, align 8
  br label %9

9:                                                ; preds = %23, %2
  %10 = load ptr, ptr %6, align 8
  %11 = icmp ne ptr %10, null
  br i1 %11, label %12, label %21

12:                                               ; preds = %9
  %13 = load ptr, ptr %6, align 8
  %14 = call noundef i64 @_ZNK9metaspace9Metachunk15committed_wordsEv(ptr noundef nonnull align 8 dereferenceable(72) %13)
  %15 = load i64, ptr %5, align 8
  %16 = icmp ult i64 %14, %15
  br i1 %16, label %17, label %21

17:                                               ; preds = %12
  %18 = load ptr, ptr %6, align 8
  %19 = call noundef i64 @_ZNK9metaspace9Metachunk15committed_wordsEv(ptr noundef nonnull align 8 dereferenceable(72) %18)
  %20 = icmp ugt i64 %19, 0
  br label %21

21:                                               ; preds = %17, %12, %9
  %22 = phi i1 [ false, %12 ], [ false, %9 ], [ %20, %17 ]
  br i1 %22, label %23, label %26

23:                                               ; preds = %21
  %24 = load ptr, ptr %6, align 8
  %25 = call noundef ptr @_ZNK9metaspace9Metachunk4nextEv(ptr noundef nonnull align 8 dereferenceable(72) %24)
  store ptr %25, ptr %6, align 8
  br label %9, !llvm.loop !13

26:                                               ; preds = %21
  %27 = load ptr, ptr %6, align 8
  %28 = icmp ne ptr %27, null
  br i1 %28, label %29, label %36

29:                                               ; preds = %26
  %30 = load ptr, ptr %6, align 8
  %31 = call noundef i64 @_ZNK9metaspace9Metachunk15committed_wordsEv(ptr noundef nonnull align 8 dereferenceable(72) %30)
  %32 = load i64, ptr %5, align 8
  %33 = icmp uge i64 %31, %32
  br i1 %33, label %34, label %36

34:                                               ; preds = %29
  %35 = load ptr, ptr %6, align 8
  store ptr %35, ptr %3, align 8
  br label %37

36:                                               ; preds = %29, %26
  store ptr null, ptr %3, align 8
  br label %37

37:                                               ; preds = %36, %34
  %38 = load ptr, ptr %3, align 8
  ret ptr %38
}

; Function Attrs: mustprogress nounwind uwtable
define linkonce_odr hidden noundef ptr @_ZN9metaspace19FreeChunkListVector14list_for_levelEa(ptr noundef nonnull align 8 dereferenceable(360) %0, i8 noundef signext %1) #1 comdat align 2 {
  %3 = alloca ptr, align 8
  %4 = alloca i8, align 1
  store ptr %0, ptr %3, align 8
  store i8 %1, ptr %4, align 1
  %5 = load ptr, ptr %3, align 8
  %6 = getelementptr inbounds %"class.metaspace::FreeChunkListVector", ptr %5, i32 0, i32 0
  %7 = getelementptr inbounds [15 x %"class.metaspace::FreeChunkList"], ptr %6, i64 0, i64 0
  %8 = load i8, ptr %4, align 1
  %9 = sext i8 %8 to i32
  %10 = sext i32 %9 to i64
  %11 = getelementptr inbounds %"class.metaspace::FreeChunkList", ptr %7, i64 %10
  ret ptr %11
}

; Function Attrs: mustprogress nounwind uwtable
define hidden noundef ptr @_ZN9metaspace19FreeChunkListVector22search_chunk_ascendingEaam(ptr noundef nonnull align 8 dereferenceable(360) %0, i8 noundef signext %1, i8 noundef signext %2, i64 noundef %3) #1 align 2 {
  %5 = alloca ptr, align 8
  %6 = alloca ptr, align 8
  %7 = alloca i8, align 1
  %8 = alloca i8, align 1
  %9 = alloca i64, align 8
  %10 = alloca i8, align 1
  %11 = alloca ptr, align 8
  %12 = alloca ptr, align 8
  store ptr %0, ptr %6, align 8
  store i8 %1, ptr %7, align 1
  store i8 %2, ptr %8, align 1
  store i64 %3, ptr %9, align 8
  %13 = load ptr, ptr %6, align 8
  %14 = load i8, ptr %7, align 1
  store i8 %14, ptr %10, align 1
  br label %15

15:                                               ; preds = %35, %4
  %16 = load i8, ptr %10, align 1
  %17 = sext i8 %16 to i32
  %18 = load i8, ptr %8, align 1
  %19 = sext i8 %18 to i32
  %20 = icmp sle i32 %17, %19
  br i1 %20, label %21, label %38

21:                                               ; preds = %15
  %22 = load i8, ptr %10, align 1
  %23 = call noundef ptr @_ZN9metaspace19FreeChunkListVector14list_for_levelEa(ptr noundef nonnull align 8 dereferenceable(360) %13, i8 noundef signext %22)
  store ptr %23, ptr %11, align 8
  %24 = load ptr, ptr %11, align 8
  %25 = load i64, ptr %9, align 8
  %26 = call noundef ptr @_ZNK9metaspace13FreeChunkList25first_minimally_committedEm(ptr noundef nonnull align 8 dereferenceable(20) %24, i64 noundef %25)
  store ptr %26, ptr %12, align 8
  %27 = load ptr, ptr %12, align 8
  %28 = icmp ne ptr %27, null
  br i1 %28, label %29, label %34

29:                                               ; preds = %21
  %30 = load ptr, ptr %11, align 8
  %31 = load ptr, ptr %12, align 8
  %32 = call noundef ptr @_ZN9metaspace13FreeChunkList6removeEPNS_9MetachunkE(ptr noundef nonnull align 8 dereferenceable(20) %30, ptr noundef %31)
  %33 = load ptr, ptr %12, align 8
  store ptr %33, ptr %5, align 8
  br label %39

34:                                               ; preds = %21
  br label %35

35:                                               ; preds = %34
  %36 = load i8, ptr %10, align 1
  %37 = add i8 %36, 1
  store i8 %37, ptr %10, align 1
  br label %15, !llvm.loop !12

38:                                               ; preds = %15
  store ptr null, ptr %5, align 8
  br label %39

39:                                               ; preds = %38, %29
  %40 = load ptr, ptr %5, align 8
  ret ptr %40
}