; Function Attrs: mustprogress nofree norecurse nosync nounwind memory(readwrite, inaccessiblemem: none) uwtable
define hidden noundef ptr @_ZN9metaspace19FreeChunkListVector22search_chunk_ascendingEaam(ptr nocapture noundef nonnull align 8 dereferenceable(360) %0, i8 noundef signext %1, i8 noundef signext %2, i64 noundef %3) local_unnamed_addr #4 align 2 {
  %.not20 = icmp sgt i8 %1, %2
  br i1 %.not20, label %.loopexit18, label %.lr.ph

.lr.ph:                                           ; preds = %4, %.loopexit
  %.01221 = phi i8 [ %34, %.loopexit ], [ %1, %4 ]
  %5 = sext i8 %.01221 to i64
  %6 = getelementptr inbounds %"class.metaspace::FreeChunkList", ptr %0, i64 %5
  %.014.i = load ptr, ptr %6, align 8
  %.not15.i = icmp eq ptr %.014.i, null
  br i1 %.not15.i, label %.loopexit, label %.lr.ph.i

.lr.ph.i:                                         ; preds = %.lr.ph, %11
  %.016.i = phi ptr [ %.0.i, %11 ], [ %.014.i, %.lr.ph ]
  %7 = getelementptr inbounds i8, ptr %.016.i, i64 16
  %8 = load i64, ptr %7, align 8
  %9 = icmp ult i64 %8, %3
  br i1 %9, label %10, label %_ZNK9metaspace13FreeChunkList25first_minimally_committedEm.exit

10:                                               ; preds = %.lr.ph.i
  %.not11.i = icmp eq i64 %8, 0
  br i1 %.not11.i, label %.loopexit, label %11

11:                                               ; preds = %10
  %12 = getelementptr inbounds i8, ptr %.016.i, i64 48
  %.0.i = load ptr, ptr %12, align 8
  %.not.i = icmp eq ptr %.0.i, null
  br i1 %.not.i, label %.loopexit, label %.lr.ph.i, !llvm.loop !12

_ZNK9metaspace13FreeChunkList25first_minimally_committedEm.exit: ; preds = %.lr.ph.i
  %13 = getelementptr inbounds i8, ptr %.016.i, i64 40
  %14 = load ptr, ptr %13, align 8
  %15 = getelementptr inbounds i8, ptr %.016.i, i64 48
  %16 = load ptr, ptr %15, align 8
  %.not.i15 = icmp eq ptr %14, null
  br i1 %.not.i15, label %19, label %17

17:                                               ; preds = %_ZNK9metaspace13FreeChunkList25first_minimally_committedEm.exit
  %18 = getelementptr inbounds i8, ptr %14, i64 48
  store ptr %16, ptr %18, align 8
  br label %19

19:                                               ; preds = %17, %_ZNK9metaspace13FreeChunkList25first_minimally_committedEm.exit
  %.not17.i = icmp eq ptr %16, null
  br i1 %.not17.i, label %22, label %20

20:                                               ; preds = %19
  %21 = getelementptr inbounds i8, ptr %16, i64 40
  store ptr %14, ptr %21, align 8
  br label %22

22:                                               ; preds = %20, %19
  %23 = load ptr, ptr %6, align 8
  %24 = icmp eq ptr %23, %.016.i
  br i1 %24, label %25, label %26

25:                                               ; preds = %22
  store ptr %16, ptr %6, align 8
  br label %26

26:                                               ; preds = %25, %22
  %27 = getelementptr inbounds i8, ptr %6, i64 8
  %28 = load ptr, ptr %27, align 8
  %29 = icmp eq ptr %28, %.016.i
  br i1 %29, label %30, label %_ZN9metaspace13FreeChunkList6removeEPNS_9MetachunkE.exit

30:                                               ; preds = %26
  store ptr %14, ptr %27, align 8
  br label %_ZN9metaspace13FreeChunkList6removeEPNS_9MetachunkE.exit

_ZN9metaspace13FreeChunkList6removeEPNS_9MetachunkE.exit: ; preds = %26, %30
  %31 = getelementptr inbounds i8, ptr %6, i64 16
  tail call void @llvm.memset.p0.i64(ptr noundef nonnull align 8 dereferenceable(16) %13, i8 0, i64 16, i1 false)
  %32 = load i32, ptr %31, align 4
  %33 = add i32 %32, -1
  store i32 %33, ptr %31, align 4
  br label %.loopexit18

.loopexit:                                        ; preds = %10, %11, %.lr.ph
  %34 = add i8 %.01221, 1
  %.not = icmp sgt i8 %34, %2
  br i1 %.not, label %.loopexit18, label %.lr.ph, !llvm.loop !13

.loopexit18:                                      ; preds = %.loopexit, %4, %_ZN9metaspace13FreeChunkList6removeEPNS_9MetachunkE.exit
  %.0 = phi ptr [ %.016.i, %_ZN9metaspace13FreeChunkList6removeEPNS_9MetachunkE.exit ], [ null, %4 ], [ null, %.loopexit ]
  ret ptr %.0
}